; Function Attrs: mustprogress uwtable
define hidden void @_ZN3smt5setup11setup_QF_DTEv(ptr nocapture noundef nonnull readonly align 8 dereferenceable(33) %this) local_unnamed_addr #4 align 2 {
entry:
  %m_params.i = getelementptr inbounds i8, ptr %this, i64 16
  %0 = load ptr, ptr %m_params.i, align 8
  tail call void @_ZN10smt_params11setup_QF_UFEv(ptr noundef nonnull align 8 dereferenceable(800) %0)
  %1 = load ptr, ptr %this, align 8
  %call.i = tail call noalias noundef ptr @_ZN6memory8allocateEm(i64 noundef 728)
  %2 = load ptr, ptr %this, align 8
  tail call void @_ZN3smt15theory_datatypeC1ERNS_7contextE(ptr noundef nonnull align 8 dereferenceable(728) %call.i, ptr noundef nonnull align 8 dereferenceable(11616) %2)
  tail call void @_ZN3smt7context15register_pluginEPNS_6theoryE(ptr noundef nonnull align 8 dereferenceable(11616) %1, ptr noundef nonnull %call.i)
  %call.i1 = tail call noalias noundef ptr @_ZN6memory8allocateEm(i64 noundef 216)
  %3 = load ptr, ptr %this, align 8
  tail call void @_ZN3smt13theory_recfunC1ERNS_7contextE(ptr noundef nonnull align 8 dereferenceable(212) %call.i1, ptr noundef nonnull align 8 dereferenceable(11616) %3)
  %4 = load ptr, ptr %this, align 8
  tail call void @_ZN3smt7context15register_pluginEPNS_6theoryE(ptr noundef nonnull align 8 dereferenceable(11616) %4, ptr noundef nonnull %call.i1)
  ret void
}